target datalayout = "e-m:e-p270:32:32-p271:32:32-p272:64:64-i64:64-i128:128-f80:128-n8:16:32:64-S128"
target triple = "x86_64-pc-linux-gnu"

%struct.rsa_st = type { ptr, ptr, ptr, ptr, ptr, ptr, ptr, ptr, ptr, ptr, %struct.crypto_ex_data_st, i32, i32, %union.crypto_mutex_st, ptr, ptr, ptr, i32, ptr, ptr }
%struct.crypto_ex_data_st = type { ptr }
%union.crypto_mutex_st = type { double, [48 x i8] }

@.str = private unnamed_addr constant [125 x i8] c"generated/home/dtcxzyw/WorkSpace/Projects/compilers/llvm-opt-benchmark/bench/libquic/libquic/boringssl/crypto/rsa/rsa_impl.c\00", align 1

; Function Attrs: nounwind uwtable
define internal i32 @check_modulus_and_exponent_sizes(ptr noundef %0) #0 {
  %2 = alloca i32, align 4
  %3 = alloca ptr, align 8
  %4 = alloca i32, align 4
  %5 = alloca i32, align 4
  store ptr %0, ptr %3, align 8, !tbaa !6
  call void @llvm.lifetime.start.p0(i64 4, ptr %4) #7
  %6 = load ptr, ptr %3, align 8, !tbaa !6
  %7 = getelementptr inbounds nuw %struct.rsa_st, ptr %6, i32 0, i32 1
  %8 = load ptr, ptr %7, align 8, !tbaa !11
  %9 = call i32 @BN_num_bits(ptr noundef %8)
  store i32 %9, ptr %4, align 4, !tbaa !27
  %10 = load i32, ptr %4, align 4, !tbaa !27
  %11 = icmp ugt i32 %10, 16384
  br i1 %11, label %12, label %13

12:                                               ; preds = %1
  call void @ERR_put_error(i32 noundef 4, i32 noundef 0, i32 noundef 128, ptr noundef @.str, i32 noundef 75)
  store i32 0, ptr %2, align 4
  store i32 1, ptr %5, align 4
  br label %25

13:                                               ; preds = %1
  %14 = load ptr, ptr %3, align 8, !tbaa !6
  %15 = getelementptr inbounds nuw %struct.rsa_st, ptr %14, i32 0, i32 2
  %16 = load ptr, ptr %15, align 8, !tbaa !31
  %17 = call i32 @BN_num_bits(ptr noundef %16)
  %18 = icmp ugt i32 %17, 33
  br i1 %18, label %19, label %20

19:                                               ; preds = %13
  call void @ERR_put_error(i32 noundef 4, i32 noundef 0, i32 noundef 101, ptr noundef @.str, i32 noundef 91)
  store i32 0, ptr %2, align 4
  store i32 1, ptr %5, align 4
  br label %25

20:                                               ; preds = %13
  %21 = load i32, ptr %4, align 4, !tbaa !27
  %22 = icmp ule i32 %21, 33
  br i1 %22, label %23, label %24

23:                                               ; preds = %20
  call void @ERR_put_error(i32 noundef 4, i32 noundef 0, i32 noundef 126, ptr noundef @.str, i32 noundef 100)
  store i32 0, ptr %2, align 4
  store i32 1, ptr %5, align 4
  br label %25

24:                                               ; preds = %20
  store i32 1, ptr %2, align 4
  store i32 1, ptr %5, align 4
  br label %25

25:                                               ; preds = %24, %23, %19, %12
  call void @llvm.lifetime.end.p0(i64 4, ptr %4) #7
  %26 = load i32, ptr %2, align 4
  ret i32 %26
}

; Function Attrs: nounwind uwtable
define hidden i32 @RSA_verify_raw(ptr noundef %0, ptr noundef %1, ptr noundef %2, i64 noundef %3, ptr noundef %4, i64 noundef %5, i32 noundef %6) #0 {
  %8 = alloca i32, align 4
  %9 = alloca ptr, align 8
  %10 = alloca ptr, align 8
  %11 = alloca ptr, align 8
  %12 = alloca i64, align 8
  %13 = alloca ptr, align 8
  %14 = alloca i64, align 8
  %15 = alloca i32, align 4
  %16 = alloca i32, align 4
  %17 = alloca ptr, align 8
  %18 = alloca ptr, align 8
  %19 = alloca i32, align 4
  %20 = alloca i32, align 4
  %21 = alloca ptr, align 8
  %22 = alloca i32, align 4
  %23 = alloca ptr, align 8
  store ptr %0, ptr %9, align 8, !tbaa !6
  store ptr %1, ptr %10, align 8, !tbaa !22
  store ptr %2, ptr %11, align 8, !tbaa !24
  store i64 %3, ptr %12, align 8, !tbaa !25
  store ptr %4, ptr %13, align 8, !tbaa !24
  store i64 %5, ptr %14, align 8, !tbaa !25
  store i32 %6, ptr %15, align 4, !tbaa !27
  %24 = load ptr, ptr %9, align 8, !tbaa !6
  %25 = getelementptr inbounds nuw %struct.rsa_st, ptr %24, i32 0, i32 1
  %26 = load ptr, ptr %25, align 8, !tbaa !11
  %27 = icmp eq ptr %26, null
  br i1 %27, label %33, label %28

28:                                               ; preds = %7
  %29 = load ptr, ptr %9, align 8, !tbaa !6
  %30 = getelementptr inbounds nuw %struct.rsa_st, ptr %29, i32 0, i32 2
  %31 = load ptr, ptr %30, align 8, !tbaa !31
  %32 = icmp eq ptr %31, null
  br i1 %32, label %33, label %34

33:                                               ; preds = %28, %7
  call void @ERR_put_error(i32 noundef 4, i32 noundef 0, i32 noundef 144, ptr noundef @.str, i32 noundef 432)
  store i32 0, ptr %8, align 4
  br label %165

34:                                               ; preds = %28
  call void @llvm.lifetime.start.p0(i64 4, ptr %16) #7
  %35 = load ptr, ptr %9, align 8, !tbaa !6
  %36 = call i32 @RSA_size(ptr noundef %35)
  store i32 %36, ptr %16, align 4, !tbaa !27
  call void @llvm.lifetime.start.p0(i64 8, ptr %17) #7
  call void @llvm.lifetime.start.p0(i64 8, ptr %18) #7
  call void @llvm.lifetime.start.p0(i64 4, ptr %19) #7
  store i32 -1, ptr %19, align 4, !tbaa !27
  %37 = load i64, ptr %12, align 8, !tbaa !25
  %38 = load i32, ptr %16, align 4, !tbaa !27
  %39 = zext i32 %38 to i64
  %40 = icmp ult i64 %37, %39
  br i1 %40, label %41, label %42

41:                                               ; preds = %34
  call void @ERR_put_error(i32 noundef 4, i32 noundef 0, i32 noundef 135, ptr noundef @.str, i32 noundef 441)
  store i32 0, ptr %8, align 4
  store i32 1, ptr %20, align 4
  br label %164

42:                                               ; preds = %34
  %43 = load i64, ptr %14, align 8, !tbaa !25
  %44 = load i32, ptr %16, align 4, !tbaa !27
  %45 = zext i32 %44 to i64
  %46 = icmp ne i64 %43, %45
  br i1 %46, label %47, label %48

47:                                               ; preds = %42
  call void @ERR_put_error(i32 noundef 4, i32 noundef 0, i32 noundef 112, ptr noundef @.str, i32 noundef 446)
  store i32 0, ptr %8, align 4
  store i32 1, ptr %20, align 4
  br label %164

48:                                               ; preds = %42
  %49 = load ptr, ptr %9, align 8, !tbaa !6
  %50 = call i32 @check_modulus_and_exponent_sizes(ptr noundef %49)
  %51 = icmp ne i32 %50, 0
  br i1 %51, label %53, label %52

52:                                               ; preds = %48
  store i32 0, ptr %8, align 4
  store i32 1, ptr %20, align 4
  br label %164

53:                                               ; preds = %48
  call void @llvm.lifetime.start.p0(i64 8, ptr %21) #7
  %54 = call ptr @BN_CTX_new()
  store ptr %54, ptr %21, align 8, !tbaa !28
  %55 = load ptr, ptr %21, align 8, !tbaa !28
  %56 = icmp eq ptr %55, null
  br i1 %56, label %57, label %58

57:                                               ; preds = %53
  store i32 0, ptr %8, align 4
  store i32 1, ptr %20, align 4
  br label %163

58:                                               ; preds = %53
  call void @llvm.lifetime.start.p0(i64 4, ptr %22) #7
  store i32 0, ptr %22, align 4, !tbaa !27
  call void @llvm.lifetime.start.p0(i64 8, ptr %23) #7
  store ptr null, ptr %23, align 8, !tbaa !24
  %59 = load ptr, ptr %21, align 8, !tbaa !28
  call void @BN_CTX_start(ptr noundef %59)
  %60 = load ptr, ptr %21, align 8, !tbaa !28
  %61 = call ptr @BN_CTX_get(ptr noundef %60)
  store ptr %61, ptr %17, align 8, !tbaa !30
  %62 = load ptr, ptr %21, align 8, !tbaa !28
  %63 = call ptr @BN_CTX_get(ptr noundef %62)
  store ptr %63, ptr %18, align 8, !tbaa !30
  %64 = load ptr, ptr %17, align 8, !tbaa !30
  %65 = icmp eq ptr %64, null
  br i1 %65, label %69, label %66

66:                                               ; preds = %58
  %67 = load ptr, ptr %18, align 8, !tbaa !30
  %68 = icmp eq ptr %67, null
  br i1 %68, label %69, label %70

69:                                               ; preds = %66, %58
  call void @ERR_put_error(i32 noundef 4, i32 noundef 0, i32 noundef 65, ptr noundef @.str, i32 noundef 466)
  br label %153

70:                                               ; preds = %66
  %71 = load i32, ptr %15, align 4, !tbaa !27
  %72 = icmp eq i32 %71, 3
  br i1 %72, label %73, label %75

73:                                               ; preds = %70
  %74 = load ptr, ptr %11, align 8, !tbaa !24
  store ptr %74, ptr %23, align 8, !tbaa !24
  br label %83

75:                                               ; preds = %70
  %76 = load i32, ptr %16, align 4, !tbaa !27
  %77 = zext i32 %76 to i64
  %78 = call noalias ptr @malloc(i64 noundef %77) #8
  store ptr %78, ptr %23, align 8, !tbaa !24
  %79 = load ptr, ptr %23, align 8, !tbaa !24
  %80 = icmp eq ptr %79, null
  br i1 %80, label %81, label %82

81:                                               ; preds = %75
  call void @ERR_put_error(i32 noundef 4, i32 noundef 0, i32 noundef 65, ptr noundef @.str, i32 noundef 476)
  br label %153

82:                                               ; preds = %75
  br label %83

83:                                               ; preds = %82, %73
  %84 = load ptr, ptr %13, align 8, !tbaa !24
  %85 = load i64, ptr %14, align 8, !tbaa !25
  %86 = load ptr, ptr %17, align 8, !tbaa !30
  %87 = call ptr @BN_bin2bn(ptr noundef %84, i64 noundef %85, ptr noundef %86)
  %88 = icmp eq ptr %87, null
  br i1 %88, label %89, label %90

89:                                               ; preds = %83
  br label %153

90:                                               ; preds = %83
  %91 = load ptr, ptr %17, align 8, !tbaa !30
  %92 = load ptr, ptr %9, align 8, !tbaa !6
  %93 = getelementptr inbounds nuw %struct.rsa_st, ptr %92, i32 0, i32 1
  %94 = load ptr, ptr %93, align 8, !tbaa !11
  %95 = call i32 @BN_ucmp(ptr noundef %91, ptr noundef %94)
  %96 = icmp sge i32 %95, 0
  br i1 %96, label %97, label %98

97:                                               ; preds = %90
  call void @ERR_put_error(i32 noundef 4, i32 noundef 0, i32 noundef 115, ptr noundef @.str, i32 noundef 486)
  br label %153

98:                                               ; preds = %90
  %99 = load ptr, ptr %9, align 8, !tbaa !6
  %100 = getelementptr inbounds nuw %struct.rsa_st, ptr %99, i32 0, i32 14
  %101 = load ptr, ptr %9, align 8, !tbaa !6
  %102 = getelementptr inbounds nuw %struct.rsa_st, ptr %101, i32 0, i32 13
  %103 = load ptr, ptr %9, align 8, !tbaa !6
  %104 = getelementptr inbounds nuw %struct.rsa_st, ptr %103, i32 0, i32 1
  %105 = load ptr, ptr %104, align 8, !tbaa !11
  %106 = load ptr, ptr %21, align 8, !tbaa !28
  %107 = call i32 @BN_MONT_CTX_set_locked(ptr noundef %100, ptr noundef %102, ptr noundef %105, ptr noundef %106)
  %108 = icmp ne i32 %107, 0
  br i1 %108, label %109, label %124

109:                                              ; preds = %98
  %110 = load ptr, ptr %18, align 8, !tbaa !30
  %111 = load ptr, ptr %17, align 8, !tbaa !30
  %112 = load ptr, ptr %9, align 8, !tbaa !6
  %113 = getelementptr inbounds nuw %struct.rsa_st, ptr %112, i32 0, i32 2
  %114 = load ptr, ptr %113, align 8, !tbaa !31
  %115 = load ptr, ptr %9, align 8, !tbaa !6
  %116 = getelementptr inbounds nuw %struct.rsa_st, ptr %115, i32 0, i32 1
  %117 = load ptr, ptr %116, align 8, !tbaa !11
  %118 = load ptr, ptr %21, align 8, !tbaa !28
  %119 = load ptr, ptr %9, align 8, !tbaa !6
  %120 = getelementptr inbounds nuw %struct.rsa_st, ptr %119, i32 0, i32 14
  %121 = load ptr, ptr %120, align 8, !tbaa !32
  %122 = call i32 @BN_mod_exp_mont(ptr noundef %110, ptr noundef %111, ptr noundef %114, ptr noundef %117, ptr noundef %118, ptr noundef %121)
  %123 = icmp ne i32 %122, 0
  br i1 %123, label %125, label %124

124:                                              ; preds = %109, %98
  br label %153

125:                                              ; preds = %109
  %126 = load ptr, ptr %23, align 8, !tbaa !24
  %127 = load i32, ptr %16, align 4, !tbaa !27
  %128 = zext i32 %127 to i64
  %129 = load ptr, ptr %18, align 8, !tbaa !30
  %130 = call i32 @BN_bn2bin_padded(ptr noundef %126, i64 noundef %128, ptr noundef %129)
  %131 = icmp ne i32 %130, 0
  br i1 %131, label %133, label %132

132:                                              ; preds = %125
  call void @ERR_put_error(i32 noundef 4, i32 noundef 0, i32 noundef 68, ptr noundef @.str, i32 noundef 496)
  br label %153

133:                                              ; preds = %125
  %134 = load i32, ptr %15, align 4, !tbaa !27
  switch i32 %134, label %143 [
    i32 1, label %135
    i32 3, label %141
  ]

135:                                              ; preds = %133
  %136 = load ptr, ptr %11, align 8, !tbaa !24
  %137 = load i32, ptr %16, align 4, !tbaa !27
  %138 = load ptr, ptr %23, align 8, !tbaa !24
  %139 = load i32, ptr %16, align 4, !tbaa !27
  %140 = call i32 @RSA_padding_check_PKCS1_type_1(ptr noundef %136, i32 noundef %137, ptr noundef %138, i32 noundef %139)
  store i32 %140, ptr %19, align 4, !tbaa !27
  br label %144

141:                                              ; preds = %133
  %142 = load i32, ptr %16, align 4, !tbaa !27
  store i32 %142, ptr %19, align 4, !tbaa !27
  br label %144

143:                                              ; preds = %133
  call void @ERR_put_error(i32 noundef 4, i32 noundef 0, i32 noundef 143, ptr noundef @.str, i32 noundef 508)
  br label %153

144:                                              ; preds = %141, %135
  %145 = load i32, ptr %19, align 4, !tbaa !27
  %146 = icmp slt i32 %145, 0
  br i1 %146, label %147, label %148

147:                                              ; preds = %144
  call void @ERR_put_error(i32 noundef 4, i32 noundef 0, i32 noundef 136, ptr noundef @.str, i32 noundef 513)
  br label %152

148:                                              ; preds = %144
  %149 = load i32, ptr %19, align 4, !tbaa !27
  %150 = sext i32 %149 to i64
  %151 = load ptr, ptr %10, align 8, !tbaa !22
  store i64 %150, ptr %151, align 8, !tbaa !25
  store i32 1, ptr %22, align 4, !tbaa !27
  br label %152

152:                                              ; preds = %148, %147
  br label %153

153:                                              ; preds = %152, %143, %132, %124, %97, %89, %81, %69
  %154 = load ptr, ptr %21, align 8, !tbaa !28
  call void @BN_CTX_end(ptr noundef %154)
  %155 = load ptr, ptr %21, align 8, !tbaa !28
  call void @BN_CTX_free(ptr noundef %155)
  %156 = load ptr, ptr %23, align 8, !tbaa !24
  %157 = load ptr, ptr %11, align 8, !tbaa !24
  %158 = icmp ne ptr %156, %157
  br i1 %158, label %159, label %161

159:                                              ; preds = %153
  %160 = load ptr, ptr %23, align 8, !tbaa !24
  call void @free(ptr noundef %160) #7
  br label %161

161:                                              ; preds = %159, %153
  %162 = load i32, ptr %22, align 4, !tbaa !27
  store i32 %162, ptr %8, align 4
  store i32 1, ptr %20, align 4
  call void @llvm.lifetime.end.p0(i64 8, ptr %23) #7
  call void @llvm.lifetime.end.p0(i64 4, ptr %22) #7
  br label %163

163:                                              ; preds = %161, %57
  call void @llvm.lifetime.end.p0(i64 8, ptr %21) #7
  br label %164

164:                                              ; preds = %163, %52, %47, %41
  call void @llvm.lifetime.end.p0(i64 4, ptr %19) #7
  call void @llvm.lifetime.end.p0(i64 8, ptr %18) #7
  call void @llvm.lifetime.end.p0(i64 8, ptr %17) #7
  call void @llvm.lifetime.end.p0(i64 4, ptr %16) #7
  br label %165

165:                                              ; preds = %164, %33
  %166 = load i32, ptr %8, align 4
  ret i32 %166
}