; Function Attrs: nounwind uwtable
define hidden range(i32 0, 2) i32 @RSA_verify_raw(ptr noundef %0, ptr noundef writeonly captures(none) %1, ptr noundef %2, i64 noundef %3, ptr noundef %4, i64 noundef %5, i32 noundef %6) local_unnamed_addr #0 {
  %8 = getelementptr inbounds nuw i8, ptr %0, i64 8
  %9 = load ptr, ptr %8, align 8, !tbaa !6
  %10 = icmp eq ptr %9, null
  br i1 %10, label %15, label %11

11:                                               ; preds = %7
  %12 = getelementptr inbounds nuw i8, ptr %0, i64 16
  %13 = load ptr, ptr %12, align 8, !tbaa !20
  %14 = icmp eq ptr %13, null
  br i1 %14, label %15, label %16

15:                                               ; preds = %11, %7
  tail call void @ERR_put_error(i32 noundef 4, i32 noundef 0, i32 noundef 144, ptr noundef nonnull @.str, i32 noundef 432) #8
  br label %check_modulus_and_exponent_sizes.exit.thread

16:                                               ; preds = %11
  %17 = tail call i32 @RSA_size(ptr noundef nonnull %0) #8
  %18 = zext i32 %17 to i64
  %19 = icmp ult i64 %3, %18
  br i1 %19, label %20, label %21

20:                                               ; preds = %16
  tail call void @ERR_put_error(i32 noundef 4, i32 noundef 0, i32 noundef 135, ptr noundef nonnull @.str, i32 noundef 441) #8
  br label %check_modulus_and_exponent_sizes.exit.thread

21:                                               ; preds = %16
  %.not = icmp eq i64 %5, %18
  br i1 %.not, label %23, label %22

22:                                               ; preds = %21
  tail call void @ERR_put_error(i32 noundef 4, i32 noundef 0, i32 noundef 112, ptr noundef nonnull @.str, i32 noundef 446) #8
  br label %check_modulus_and_exponent_sizes.exit.thread

23:                                               ; preds = %21
  %24 = load ptr, ptr %8, align 8, !tbaa !6
  %25 = tail call i32 @BN_num_bits(ptr noundef %24) #8
  %26 = icmp ugt i32 %25, 16384
  br i1 %26, label %27, label %28

27:                                               ; preds = %23
  tail call void @ERR_put_error(i32 noundef 4, i32 noundef 0, i32 noundef 128, ptr noundef nonnull @.str, i32 noundef 75) #8
  br label %check_modulus_and_exponent_sizes.exit.thread

28:                                               ; preds = %23
  %29 = load ptr, ptr %12, align 8, !tbaa !20
  %30 = tail call i32 @BN_num_bits(ptr noundef %29) #8
  %31 = icmp ugt i32 %30, 33
  br i1 %31, label %32, label %33

32:                                               ; preds = %28
  tail call void @ERR_put_error(i32 noundef 4, i32 noundef 0, i32 noundef 101, ptr noundef nonnull @.str, i32 noundef 91) #8
  br label %check_modulus_and_exponent_sizes.exit.thread

33:                                               ; preds = %28
  %34 = icmp samesign ult i32 %25, 34
  br i1 %34, label %35, label %check_modulus_and_exponent_sizes.exit

35:                                               ; preds = %33
  tail call void @ERR_put_error(i32 noundef 4, i32 noundef 0, i32 noundef 126, ptr noundef nonnull @.str, i32 noundef 100) #8
  br label %check_modulus_and_exponent_sizes.exit.thread

check_modulus_and_exponent_sizes.exit:            ; preds = %33
  %36 = tail call ptr @BN_CTX_new() #8
  %37 = icmp eq ptr %36, null
  br i1 %37, label %check_modulus_and_exponent_sizes.exit.thread, label %38

38:                                               ; preds = %check_modulus_and_exponent_sizes.exit
  tail call void @BN_CTX_start(ptr noundef nonnull %36) #8
  %39 = tail call ptr @BN_CTX_get(ptr noundef nonnull %36) #8
  %40 = tail call ptr @BN_CTX_get(ptr noundef nonnull %36) #8
  %41 = icmp eq ptr %39, null
  %42 = icmp eq ptr %40, null
  %or.cond = select i1 %41, i1 true, i1 %42
  br i1 %or.cond, label %43, label %44

43:                                               ; preds = %38
  tail call void @ERR_put_error(i32 noundef 4, i32 noundef 0, i32 noundef 65, ptr noundef nonnull @.str, i32 noundef 466) #8
  br label %80

44:                                               ; preds = %38
  %45 = icmp eq i32 %6, 3
  br i1 %45, label %50, label %46

46:                                               ; preds = %44
  %47 = tail call noalias ptr @malloc(i64 noundef %5) #9
  %48 = icmp eq ptr %47, null
  br i1 %48, label %49, label %50

49:                                               ; preds = %46
  tail call void @ERR_put_error(i32 noundef 4, i32 noundef 0, i32 noundef 65, ptr noundef nonnull @.str, i32 noundef 476) #8
  br label %80

50:                                               ; preds = %44, %46
  %.1 = phi ptr [ %47, %46 ], [ %2, %44 ]
  %51 = tail call ptr @BN_bin2bn(ptr noundef %4, i64 noundef %5, ptr noundef nonnull %39) #8
  %52 = icmp eq ptr %51, null
  br i1 %52, label %80, label %53

53:                                               ; preds = %50
  %54 = load ptr, ptr %8, align 8, !tbaa !6
  %55 = tail call i32 @BN_ucmp(ptr noundef nonnull %39, ptr noundef %54) #8
  %56 = icmp sgt i32 %55, -1
  br i1 %56, label %57, label %58

57:                                               ; preds = %53
  tail call void @ERR_put_error(i32 noundef 4, i32 noundef 0, i32 noundef 115, ptr noundef nonnull @.str, i32 noundef 486) #8
  br label %80

58:                                               ; preds = %53
  %59 = getelementptr inbounds nuw i8, ptr %0, i64 152
  %60 = getelementptr inbounds nuw i8, ptr %0, i64 96
  %61 = load ptr, ptr %8, align 8, !tbaa !6
  %62 = tail call i32 @BN_MONT_CTX_set_locked(ptr noundef nonnull %59, ptr noundef nonnull %60, ptr noundef %61, ptr noundef nonnull %36) #8
  %.not64 = icmp eq i32 %62, 0
  br i1 %.not64, label %80, label %63

63:                                               ; preds = %58
  %64 = load ptr, ptr %12, align 8, !tbaa !20
  %65 = load ptr, ptr %8, align 8, !tbaa !6
  %66 = load ptr, ptr %59, align 8, !tbaa !21
  %67 = tail call i32 @BN_mod_exp_mont(ptr noundef nonnull %40, ptr noundef nonnull %39, ptr noundef %64, ptr noundef %65, ptr noundef nonnull %36, ptr noundef %66) #8
  %.not65 = icmp eq i32 %67, 0
  br i1 %.not65, label %80, label %68

68:                                               ; preds = %63
  %69 = tail call i32 @BN_bn2bin_padded(ptr noundef %.1, i64 noundef %5, ptr noundef nonnull %40) #8
  %.not66 = icmp eq i32 %69, 0
  br i1 %.not66, label %70, label %71

70:                                               ; preds = %68
  tail call void @ERR_put_error(i32 noundef 4, i32 noundef 0, i32 noundef 68, ptr noundef nonnull @.str, i32 noundef 496) #8
  br label %80

71:                                               ; preds = %68
  switch i32 %6, label %74 [
    i32 1, label %72
    i32 3, label %75
  ]

72:                                               ; preds = %71
  %73 = tail call i32 @RSA_padding_check_PKCS1_type_1(ptr noundef %2, i32 noundef %17, ptr noundef %.1, i32 noundef %17) #8
  br label %75

74:                                               ; preds = %71
  tail call void @ERR_put_error(i32 noundef 4, i32 noundef 0, i32 noundef 143, ptr noundef nonnull @.str, i32 noundef 508) #8
  br label %80

75:                                               ; preds = %71, %72
  %.055 = phi i32 [ %73, %72 ], [ %17, %71 ]
  %76 = icmp slt i32 %.055, 0
  br i1 %76, label %77, label %78

77:                                               ; preds = %75
  tail call void @ERR_put_error(i32 noundef 4, i32 noundef 0, i32 noundef 136, ptr noundef nonnull @.str, i32 noundef 513) #8
  br label %80

78:                                               ; preds = %75
  %79 = zext nneg i32 %.055 to i64
  store i64 %79, ptr %1, align 8, !tbaa !22
  br label %80

80:                                               ; preds = %77, %78, %58, %63, %50, %74, %70, %57, %49, %43
  %.052 = phi i32 [ 0, %43 ], [ 0, %50 ], [ 0, %57 ], [ 0, %74 ], [ 0, %77 ], [ 1, %78 ], [ 0, %70 ], [ 0, %63 ], [ 0, %58 ], [ 0, %49 ]
  %.0 = phi ptr [ null, %43 ], [ %.1, %50 ], [ %.1, %57 ], [ %.1, %74 ], [ %.1, %77 ], [ %.1, %78 ], [ %.1, %70 ], [ %.1, %63 ], [ %.1, %58 ], [ null, %49 ]
  tail call void @BN_CTX_end(ptr noundef nonnull %36) #8
  tail call void @BN_CTX_free(ptr noundef nonnull %36) #8
  %.not67 = icmp eq ptr %.0, %2
  br i1 %.not67, label %check_modulus_and_exponent_sizes.exit.thread, label %81

81:                                               ; preds = %80
  tail call void @free(ptr noundef %.0) #8
  br label %check_modulus_and_exponent_sizes.exit.thread

check_modulus_and_exponent_sizes.exit.thread:     ; preds = %35, %32, %27, %20, %22, %80, %81, %check_modulus_and_exponent_sizes.exit, %15
  %.053 = phi i32 [ 0, %15 ], [ 0, %20 ], [ 0, %22 ], [ 0, %check_modulus_and_exponent_sizes.exit ], [ %.052, %81 ], [ %.052, %80 ], [ 0, %27 ], [ 0, %32 ], [ 0, %35 ]
  ret i32 %.053
}